target datalayout = "e-m:e-p270:32:32-p271:32:32-p272:64:64-i64:64-i128:128-f80:128-n8:16:32:64-S128"
target triple = "x86_64-pc-linux-gnu"

%class.Type = type { i32, ptr, i32, %"class.std::vector.12", %"class.std::vector.17", i32, i8, i8, i8, i8, i8, %"class.std::vector.22", %"class.std::vector.27" }
%"class.std::vector.12" = type { %"struct.std::_Vector_base.13" }
%"struct.std::_Vector_base.13" = type { %"struct.std::_Vector_base<unsigned int, std::allocator<unsigned int>>::_Vector_impl" }
%"struct.std::_Vector_base<unsigned int, std::allocator<unsigned int>>::_Vector_impl" = type { %"struct.std::_Vector_base<unsigned int, std::allocator<unsigned int>>::_Vector_impl_data" }
%"struct.std::_Vector_base<unsigned int, std::allocator<unsigned int>>::_Vector_impl_data" = type { ptr, ptr, ptr }
%"class.std::vector.17" = type { %"struct.std::_Vector_base.18" }
%"struct.std::_Vector_base.18" = type { %"struct.std::_Vector_base<const Type *, std::allocator<const Type *>>::_Vector_impl" }
%"struct.std::_Vector_base<const Type *, std::allocator<const Type *>>::_Vector_impl" = type { %"struct.std::_Vector_base<const Type *, std::allocator<const Type *>>::_Vector_impl_data" }
%"struct.std::_Vector_base<const Type *, std::allocator<const Type *>>::_Vector_impl_data" = type { ptr, ptr, ptr }
%"class.std::vector.22" = type { %"struct.std::_Vector_base.23" }
%"struct.std::_Vector_base.23" = type { %"struct.std::_Vector_base<CVQualifiers, std::allocator<CVQualifiers>>::_Vector_impl" }
%"struct.std::_Vector_base<CVQualifiers, std::allocator<CVQualifiers>>::_Vector_impl" = type { %"struct.std::_Vector_base<CVQualifiers, std::allocator<CVQualifiers>>::_Vector_impl_data" }
%"struct.std::_Vector_base<CVQualifiers, std::allocator<CVQualifiers>>::_Vector_impl_data" = type { ptr, ptr, ptr }
%"class.std::vector.27" = type { %"struct.std::_Vector_base.28" }
%"struct.std::_Vector_base.28" = type { %"struct.std::_Vector_base<int, std::allocator<int>>::_Vector_impl" }
%"struct.std::_Vector_base<int, std::allocator<int>>::_Vector_impl" = type { %"struct.std::_Vector_base<int, std::allocator<int>>::_Vector_impl_data" }
%"struct.std::_Vector_base<int, std::allocator<int>>::_Vector_impl_data" = type { ptr, ptr, ptr }

; Function Attrs: mustprogress nounwind uwtable
define linkonce_odr dso_local noundef nonnull align 8 dereferenceable(8) ptr @_ZNKSt6vectorIPK4TypeSaIS2_EEixEm(ptr noundef nonnull align 8 dereferenceable(24) %0, i64 noundef %1) #4 comdat align 2 {
  %3 = alloca ptr, align 8
  %4 = alloca i64, align 8
  store ptr %0, ptr %3, align 8
  store i64 %1, ptr %4, align 8
  %5 = load ptr, ptr %3, align 8
  %6 = getelementptr inbounds %"struct.std::_Vector_base.18", ptr %5, i32 0, i32 0
  %7 = getelementptr inbounds %"struct.std::_Vector_base<const Type *, std::allocator<const Type *>>::_Vector_impl_data", ptr %6, i32 0, i32 0
  %8 = load ptr, ptr %7, align 8
  %9 = load i64, ptr %4, align 8
  %10 = getelementptr inbounds ptr, ptr %8, i64 %9
  ret ptr %10
}

; Function Attrs: mustprogress nounwind uwtable
define linkonce_odr dso_local noundef i64 @_ZNKSt6vectorIPK4TypeSaIS2_EE4sizeEv(ptr noundef nonnull align 8 dereferenceable(24) %0) #4 comdat align 2 {
  %2 = alloca ptr, align 8
  store ptr %0, ptr %2, align 8
  %3 = load ptr, ptr %2, align 8
  %4 = getelementptr inbounds %"struct.std::_Vector_base.18", ptr %3, i32 0, i32 0
  %5 = getelementptr inbounds %"struct.std::_Vector_base<const Type *, std::allocator<const Type *>>::_Vector_impl_data", ptr %4, i32 0, i32 1
  %6 = load ptr, ptr %5, align 8
  %7 = getelementptr inbounds %"struct.std::_Vector_base.18", ptr %3, i32 0, i32 0
  %8 = getelementptr inbounds %"struct.std::_Vector_base<const Type *, std::allocator<const Type *>>::_Vector_impl_data", ptr %7, i32 0, i32 0
  %9 = load ptr, ptr %8, align 8
  %10 = ptrtoint ptr %6 to i64
  %11 = ptrtoint ptr %9 to i64
  %12 = sub i64 %10, %11
  %13 = sdiv exact i64 %12, 8
  ret i64 %13
}

; Function Attrs: mustprogress nounwind uwtable
define linkonce_odr dso_local noundef zeroext i1 @_ZNK4Type14has_assign_opsEv(ptr noundef nonnull align 8 dereferenceable(136) %0) #4 comdat align 2 {
  %2 = alloca ptr, align 8
  store ptr %0, ptr %2, align 8
  %3 = load ptr, ptr %2, align 8
  %4 = getelementptr inbounds %class.Type, ptr %3, i32 0, i32 9
  %5 = load i8, ptr %4, align 1
  %6 = trunc i8 %5 to i1
  ret i1 %6
}

; Function Attrs: mustprogress uwtable
define internal noundef zeroext i1 @_ZL27is_volatile_ok_on_one_levelPK4Type(ptr noundef %0) #5 {
  %2 = alloca i1, align 1
  %3 = alloca ptr, align 8
  %4 = alloca i64, align 8
  %5 = alloca ptr, align 8
  store ptr %0, ptr %3, align 8
  %6 = call noundef zeroext i1 @_ZN9CGOptions8lang_cppEv()
  br i1 %6, label %8, label %7

7:                                                ; preds = %1
  store i1 true, ptr %2, align 1
  br label %62

8:                                                ; preds = %1
  %9 = load ptr, ptr %3, align 8
  %10 = getelementptr inbounds %class.Type, ptr %9, i32 0, i32 0
  %11 = load i32, ptr %10, align 8
  %12 = icmp ne i32 %11, 3
  br i1 %12, label %13, label %19

13:                                               ; preds = %8
  %14 = load ptr, ptr %3, align 8
  %15 = getelementptr inbounds %class.Type, ptr %14, i32 0, i32 0
  %16 = load i32, ptr %15, align 8
  %17 = icmp ne i32 %16, 2
  br i1 %17, label %18, label %19

18:                                               ; preds = %13
  store i1 true, ptr %2, align 1
  br label %62

19:                                               ; preds = %13, %8
  %20 = load ptr, ptr %3, align 8
  %21 = call noundef zeroext i1 @_ZNK4Type14has_assign_opsEv(ptr noundef nonnull align 8 dereferenceable(136) %20)
  br i1 %21, label %23, label %22

22:                                               ; preds = %19
  store i1 false, ptr %2, align 1
  br label %62

23:                                               ; preds = %19
  %24 = load ptr, ptr %3, align 8
  %25 = getelementptr inbounds %class.Type, ptr %24, i32 0, i32 0
  %26 = load i32, ptr %25, align 8
  %27 = icmp eq i32 %26, 3
  br i1 %27, label %28, label %29

28:                                               ; preds = %23
  store i1 true, ptr %2, align 1
  br label %62

29:                                               ; preds = %23
  store i64 0, ptr %4, align 8
  br label %30

30:                                               ; preds = %58, %29
  %31 = load i64, ptr %4, align 8
  %32 = load ptr, ptr %3, align 8
  %33 = getelementptr inbounds %class.Type, ptr %32, i32 0, i32 4
  %34 = call noundef i64 @_ZNKSt6vectorIPK4TypeSaIS2_EE4sizeEv(ptr noundef nonnull align 8 dereferenceable(24) %33) #3
  %35 = icmp ult i64 %31, %34
  br i1 %35, label %36, label %61

36:                                               ; preds = %30
  %37 = load ptr, ptr %3, align 8
  %38 = getelementptr inbounds %class.Type, ptr %37, i32 0, i32 4
  %39 = load i64, ptr %4, align 8
  %40 = call noundef nonnull align 8 dereferenceable(8) ptr @_ZNKSt6vectorIPK4TypeSaIS2_EEixEm(ptr noundef nonnull align 8 dereferenceable(24) %38, i64 noundef %39) #3
  %41 = load ptr, ptr %40, align 8
  store ptr %41, ptr %5, align 8
  %42 = load ptr, ptr %5, align 8
  %43 = getelementptr inbounds %class.Type, ptr %42, i32 0, i32 0
  %44 = load i32, ptr %43, align 8
  %45 = icmp eq i32 %44, 3
  br i1 %45, label %46, label %47

46:                                               ; preds = %36
  store i1 false, ptr %2, align 1
  br label %62

47:                                               ; preds = %36
  %48 = load ptr, ptr %5, align 8
  %49 = getelementptr inbounds %class.Type, ptr %48, i32 0, i32 0
  %50 = load i32, ptr %49, align 8
  %51 = icmp eq i32 %50, 2
  br i1 %51, label %52, label %57

52:                                               ; preds = %47
  %53 = load ptr, ptr %5, align 8
  %54 = call noundef zeroext i1 @_ZL27is_volatile_ok_on_one_levelPK4Type(ptr noundef %53)
  br i1 %54, label %56, label %55

55:                                               ; preds = %52
  store i1 false, ptr %2, align 1
  br label %62

56:                                               ; preds = %52
  br label %57

57:                                               ; preds = %56, %47
  br label %58

58:                                               ; preds = %57
  %59 = load i64, ptr %4, align 8
  %60 = add i64 %59, 1
  store i64 %60, ptr %4, align 8
  br label %30, !llvm.loop !19

61:                                               ; preds = %30
  store i1 true, ptr %2, align 1
  br label %62

62:                                               ; preds = %61, %55, %46, %28, %22, %18, %7
  %63 = load i1, ptr %2, align 1
  ret i1 %63
}