; Function Attrs: mustprogress uwtable
define internal fastcc noundef zeroext i1 @_ZL27is_volatile_ok_on_one_levelPK4Type(ptr nocapture noundef readonly %0) unnamed_addr #4 {
  %2 = tail call noundef zeroext i1 @_ZN9CGOptions8lang_cppEv()
  br i1 %2, label %3, label %.loopexit

3:                                                ; preds = %1
  %4 = load i32, ptr %0, align 8
  %5 = and i32 %4, -2
  %switch = icmp eq i32 %5, 2
  br i1 %switch, label %6, label %.loopexit

6:                                                ; preds = %3
  %7 = getelementptr inbounds i8, ptr %0, i64 79
  %8 = load i8, ptr %7, align 1
  %9 = and i8 %8, 1
  %.not = icmp eq i8 %9, 0
  br i1 %.not, label %.loopexit, label %10

10:                                               ; preds = %6
  %11 = icmp eq i32 %4, 3
  br i1 %11, label %.loopexit, label %.preheader

.preheader:                                       ; preds = %10
  %12 = getelementptr inbounds i8, ptr %0, i64 48
  %13 = getelementptr inbounds i8, ptr %0, i64 56
  %14 = load ptr, ptr %13, align 8
  %15 = load ptr, ptr %12, align 8
  %.not21 = icmp eq ptr %14, %15
  br i1 %.not21, label %.loopexit, label %.lr.ph

.lr.ph:                                           ; preds = %.preheader, %23
  %16 = phi ptr [ %24, %23 ], [ %15, %.preheader ]
  %17 = phi ptr [ %25, %23 ], [ %14, %.preheader ]
  %.01216 = phi i64 [ %26, %23 ], [ 0, %.preheader ]
  %18 = getelementptr inbounds ptr, ptr %16, i64 %.01216
  %19 = load ptr, ptr %18, align 8
  %20 = load i32, ptr %19, align 8
  switch i32 %20, label %23 [
    i32 3, label %.loopexit
    i32 2, label %21
  ]

21:                                               ; preds = %.lr.ph
  %22 = tail call fastcc noundef zeroext i1 @_ZL27is_volatile_ok_on_one_levelPK4Type(ptr noundef nonnull %19)
  br i1 %22, label %._crit_edge, label %.loopexit

._crit_edge:                                      ; preds = %21
  %.pre = load ptr, ptr %13, align 8
  %.pre22 = load ptr, ptr %12, align 8
  br label %23

23:                                               ; preds = %._crit_edge, %.lr.ph
  %24 = phi ptr [ %.pre22, %._crit_edge ], [ %16, %.lr.ph ]
  %25 = phi ptr [ %.pre, %._crit_edge ], [ %17, %.lr.ph ]
  %26 = add nuw i64 %.01216, 1
  %27 = ptrtoint ptr %25 to i64
  %28 = ptrtoint ptr %24 to i64
  %29 = sub i64 %27, %28
  %30 = ashr exact i64 %29, 3
  %31 = icmp ult i64 %26, %30
  br i1 %31, label %.lr.ph, label %.loopexit, !llvm.loop !22

.loopexit:                                        ; preds = %.lr.ph, %21, %23, %.preheader, %3, %10, %6, %1
  %.0 = phi i1 [ true, %1 ], [ true, %3 ], [ false, %6 ], [ true, %10 ], [ true, %.preheader ], [ false, %.lr.ph ], [ false, %21 ], [ true, %23 ]
  ret i1 %.0
}